; Function Attrs: null_pointer_is_valid sspstrong uwtable
define hidden noalias noundef ptr @State_new() local_unnamed_addr #0 {
  %1 = tail call noalias dereferenceable_or_null(72) ptr @calloc(i64 noundef 1, i64 noundef 72) #40
  %2 = icmp eq ptr %1, null
  br i1 %2, label %3, label %4

3:                                                ; preds = %0
  tail call void @memory_error()
  unreachable

4:                                                ; preds = %0
  ret ptr %1
}